; Function Attrs: mustprogress nounwind uwtable
define hidden noundef zeroext i1 @_ZNK8VPointer14is_loop_memberEP4Node(ptr nocapture noundef nonnull readonly align 8 dereferenceable(64) %0, ptr nocapture noundef readonly %1) local_unnamed_addr #0 align 2 {
  %3 = getelementptr inbounds i8, ptr %0, i64 8
  %4 = load ptr, ptr %3, align 8
  %5 = load ptr, ptr %4, align 8
  %6 = getelementptr inbounds i8, ptr %1, i64 40
  %7 = load i32, ptr %6, align 8
  %8 = getelementptr inbounds i8, ptr %5, i64 32
  %9 = load i32, ptr %8, align 8
  %10 = icmp ugt i32 %9, %7
  br i1 %10, label %11, label %_ZNK14PhaseIdealLoop25get_ctrl_no_update_helperEPK4Node.exit.i.i

11:                                               ; preds = %2
  %12 = getelementptr inbounds i8, ptr %5, i64 40
  %13 = load ptr, ptr %12, align 8
  %14 = zext i32 %7 to i64
  %15 = getelementptr inbounds ptr, ptr %13, i64 %14
  %16 = load ptr, ptr %15, align 8
  %17 = ptrtoint ptr %16 to i64
  %18 = and i64 %17, -2
  %19 = inttoptr i64 %18 to ptr
  br label %_ZNK14PhaseIdealLoop25get_ctrl_no_update_helperEPK4Node.exit.i.i

_ZNK14PhaseIdealLoop25get_ctrl_no_update_helperEPK4Node.exit.i.i: ; preds = %11, %2
  %20 = phi ptr [ %19, %11 ], [ null, %2 ]
  %21 = getelementptr inbounds i8, ptr %20, i64 8
  %22 = load ptr, ptr %21, align 8
  %23 = load ptr, ptr %22, align 8
  %.not.i.i = icmp eq ptr %23, null
  br i1 %.not.i.i, label %.preheader.i.i, label %_ZNK14PhaseIdealLoop18get_ctrl_no_updateEPK4Node.exit.i

.preheader.i.i:                                   ; preds = %_ZNK14PhaseIdealLoop25get_ctrl_no_update_helperEPK4Node.exit.i.i
  %24 = getelementptr inbounds i8, ptr %5, i64 40
  %25 = load ptr, ptr %24, align 8
  br label %26

26:                                               ; preds = %_ZNK14PhaseIdealLoop25get_ctrl_no_update_helperEPK4Node.exit8.i.i, %.preheader.i.i
  %.0.i.i = phi ptr [ %37, %_ZNK14PhaseIdealLoop25get_ctrl_no_update_helperEPK4Node.exit8.i.i ], [ %20, %.preheader.i.i ]
  %27 = getelementptr inbounds i8, ptr %.0.i.i, i64 40
  %28 = load i32, ptr %27, align 8
  %29 = icmp ugt i32 %9, %28
  br i1 %29, label %30, label %_ZNK14PhaseIdealLoop25get_ctrl_no_update_helperEPK4Node.exit8.i.i

30:                                               ; preds = %26
  %31 = zext i32 %28 to i64
  %32 = getelementptr inbounds ptr, ptr %25, i64 %31
  %33 = load ptr, ptr %32, align 8
  %34 = ptrtoint ptr %33 to i64
  %35 = and i64 %34, -2
  %36 = inttoptr i64 %35 to ptr
  br label %_ZNK14PhaseIdealLoop25get_ctrl_no_update_helperEPK4Node.exit8.i.i

_ZNK14PhaseIdealLoop25get_ctrl_no_update_helperEPK4Node.exit8.i.i: ; preds = %30, %26
  %37 = phi ptr [ %36, %30 ], [ null, %26 ]
  %38 = getelementptr inbounds i8, ptr %37, i64 8
  %39 = load ptr, ptr %38, align 8
  %40 = load ptr, ptr %39, align 8
  %.not7.i.i = icmp eq ptr %40, null
  br i1 %.not7.i.i, label %26, label %41, !llvm.loop !16

41:                                               ; preds = %_ZNK14PhaseIdealLoop25get_ctrl_no_update_helperEPK4Node.exit8.i.i
  %42 = getelementptr inbounds i8, ptr %37, i64 44
  %43 = load i32, ptr %42, align 4
  %44 = and i32 %43, 7
  %45 = icmp eq i32 %44, 5
  %spec.select.i.i = select i1 %45, ptr %40, ptr %37
  br label %_ZNK14PhaseIdealLoop18get_ctrl_no_updateEPK4Node.exit.i

_ZNK14PhaseIdealLoop18get_ctrl_no_updateEPK4Node.exit.i: ; preds = %41, %_ZNK14PhaseIdealLoop25get_ctrl_no_update_helperEPK4Node.exit.i.i
  %.1.i.i = phi ptr [ %20, %_ZNK14PhaseIdealLoop25get_ctrl_no_update_helperEPK4Node.exit.i.i ], [ %spec.select.i.i, %41 ]
  br i1 %10, label %48, label %46

46:                                               ; preds = %_ZNK14PhaseIdealLoop18get_ctrl_no_updateEPK4Node.exit.i
  %47 = getelementptr inbounds i8, ptr %5, i64 24
  tail call void @_ZN10Node_Array4growEj(ptr noundef nonnull align 8 dereferenceable(24) %47, i32 noundef %7) #13
  br label %48

48:                                               ; preds = %46, %_ZNK14PhaseIdealLoop18get_ctrl_no_updateEPK4Node.exit.i
  %49 = ptrtoint ptr %.1.i.i to i64
  %50 = add nsw i64 %49, 1
  %51 = inttoptr i64 %50 to ptr
  %52 = getelementptr inbounds i8, ptr %5, i64 40
  %53 = load ptr, ptr %52, align 8
  %54 = zext i32 %7 to i64
  %55 = getelementptr inbounds ptr, ptr %53, i64 %54
  store ptr %51, ptr %55, align 8
  %56 = load ptr, ptr %3, align 8
  %57 = getelementptr inbounds i8, ptr %56, i64 8
  %58 = load ptr, ptr %57, align 8
  %59 = load ptr, ptr %56, align 8
  %60 = getelementptr inbounds i8, ptr %.1.i.i, i64 40
  %61 = load i32, ptr %60, align 8
  %62 = getelementptr inbounds i8, ptr %59, i64 32
  %63 = load i32, ptr %62, align 8
  %64 = icmp ugt i32 %63, %61
  br i1 %64, label %_ZNK14PhaseIdealLoop8has_nodeEPK4Node.exit.i, label %_ZNK14PhaseIdealLoop8has_nodeEPK4Node.exit.thread.i

_ZNK14PhaseIdealLoop8has_nodeEPK4Node.exit.i:     ; preds = %48
  %65 = getelementptr inbounds i8, ptr %59, i64 40
  %66 = load ptr, ptr %65, align 8
  %67 = zext i32 %61 to i64
  %68 = getelementptr inbounds ptr, ptr %66, i64 %67
  %69 = load ptr, ptr %68, align 8
  %.not.i = icmp eq ptr %69, null
  br i1 %.not.i, label %_ZNK14PhaseIdealLoop8has_nodeEPK4Node.exit.thread.i, label %_ZNK14PhaseIdealLoop8get_loopEP4Node.exit

_ZNK14PhaseIdealLoop8has_nodeEPK4Node.exit.thread.i: ; preds = %_ZNK14PhaseIdealLoop8has_nodeEPK4Node.exit.i, %48
  %70 = getelementptr inbounds i8, ptr %59, i64 64
  %71 = load ptr, ptr %70, align 8
  br label %_ZNK14PhaseIdealLoop8get_loopEP4Node.exit

_ZNK14PhaseIdealLoop8get_loopEP4Node.exit:        ; preds = %_ZNK14PhaseIdealLoop8has_nodeEPK4Node.exit.i, %_ZNK14PhaseIdealLoop8has_nodeEPK4Node.exit.thread.i
  %.0.i = phi ptr [ %71, %_ZNK14PhaseIdealLoop8has_nodeEPK4Node.exit.thread.i ], [ %69, %_ZNK14PhaseIdealLoop8has_nodeEPK4Node.exit.i ]
  %72 = tail call noundef zeroext i1 @_ZNK13IdealLoopTree9is_memberEPKS_(ptr noundef nonnull align 8 dereferenceable(113) %58, ptr noundef %.0.i) #13
  ret i1 %72
}